target datalayout = "e-m:e-p270:32:32-p271:32:32-p272:64:64-i64:64-i128:128-f80:128-n8:16:32:64-S128"
target triple = "x86_64-pc-linux-gnu"

; Function Attrs: mustprogress nounwind uwtable
define dso_local noundef zeroext i1 @_ZN5clang6interp15ByteCodeEmitter19emitCopyArrayUint16EjjjRKNS0_10SourceInfoE(ptr noundef nonnull align 8 dereferenceable(488) %0, i32 noundef %1, i32 noundef %2, i32 noundef %3, ptr noundef nonnull align 8 dereferenceable(8) %4) #0 align 2 {
  %6 = alloca ptr, align 8
  %7 = alloca i32, align 4
  %8 = alloca i32, align 4
  %9 = alloca i32, align 4
  %10 = alloca ptr, align 8
  store ptr %0, ptr %6, align 8
  store i32 %1, ptr %7, align 4
  store i32 %2, ptr %8, align 4
  store i32 %3, ptr %9, align 4
  store ptr %4, ptr %10, align 8
  %11 = load ptr, ptr %6, align 8
  %12 = load ptr, ptr %10, align 8
  %13 = call noundef zeroext i1 @_ZN5clang6interp15ByteCodeEmitter6emitOpIJjjjEEEbNS0_6OpcodeEDpRKT_RKNS0_10SourceInfoE(ptr noundef nonnull align 8 dereferenceable(488) %11, i32 noundef 340, ptr noundef nonnull align 4 dereferenceable(4) %7, ptr noundef nonnull align 4 dereferenceable(4) %8, ptr noundef nonnull align 4 dereferenceable(4) %9, ptr noundef nonnull align 8 dereferenceable(8) %12)
  ret i1 %13
}